target datalayout = "e-m:e-p270:32:32-p271:32:32-p272:64:64-i64:64-i128:128-f80:128-n8:16:32:64-S128"
target triple = "x86_64-pc-linux-gnu"

%struct.cmdinfo = type { ptr, ptr, ptr, i32, i32, i32, i32, ptr, ptr, ptr, i64 }
%struct.timespec = type { i64, i64 }
%struct.QEMUIOVector = type { ptr, i32, %union.anon }
%union.anon = type { %struct.anon }
%struct.anon = type { i32, %struct.iovec }
%struct.iovec = type { ptr, i64 }
%struct.anon.0 = type { [12 x i8], i64 }
%struct.aio_ctx = type { ptr, %struct.QEMUIOVector, i64, ptr, i8, i8, i8, i8, i8, %struct.BlockAcctCookie, i32, i32, %struct.timespec }
%struct.BlockAcctCookie = type { i64, i64, i32 }

@.str.2 = private unnamed_addr constant [13 x i8] c"%s %s -- %s\0A\00", align 1
@aio_read_cmd = internal constant %struct.cmdinfo { ptr @.str.85, ptr null, ptr @aio_read_f, i32 2, i32 -1, i32 0, i32 0, ptr @.str.86, ptr @.str.87, ptr @aio_read_help, i64 0 }, align 8
@optind = external global i32, align 4
@optarg = external global ptr, align 8
@.str.30 = private unnamed_addr constant [78 x i8] c"Parsing error: non-numeric argument, or extraneous/unrecognized suffix -- %s\0A\00", align 1
@.str.31 = private unnamed_addr constant [41 x i8] c"Parsing error: argument too large -- %s\0A\00", align 1
@.str.32 = private unnamed_addr constant [19 x i8] c"Parsing error: %s\0A\00", align 1
@.str.33 = private unnamed_addr constant [32 x i8] c"%s is not a valid pattern byte\0A\00", align 1
@.str.88 = private unnamed_addr constant [8 x i8] c"CiP:qrv\00", align 1
@.str.89 = private unnamed_addr constant [32 x i8] c"injecting invalid read request\0A\00", align 1

; Function Attrs: nounwind sspstrong uwtable
define internal void @print_cvtnum_err(i64 noundef %0, ptr noundef %1) #0 {
  %3 = alloca i64, align 8
  %4 = alloca ptr, align 8
  store i64 %0, ptr %3, align 8
  store ptr %1, ptr %4, align 8
  %5 = load i64, ptr %3, align 8
  switch i64 %5, label %12 [
    i64 -22, label %6
    i64 -34, label %9
  ]

6:                                                ; preds = %2
  %7 = load ptr, ptr %4, align 8
  %8 = call i32 (i32, ptr, ...) @__printf_chk(i32 noundef 1, ptr noundef @.str.30, ptr noundef %7)
  br label %15

9:                                                ; preds = %2
  %10 = load ptr, ptr %4, align 8
  %11 = call i32 (i32, ptr, ...) @__printf_chk(i32 noundef 1, ptr noundef @.str.31, ptr noundef %10)
  br label %15

12:                                               ; preds = %2
  %13 = load ptr, ptr %4, align 8
  %14 = call i32 (i32, ptr, ...) @__printf_chk(i32 noundef 1, ptr noundef @.str.32, ptr noundef %13)
  br label %15

15:                                               ; preds = %12, %9, %6
  ret void
}

; Function Attrs: nounwind sspstrong uwtable
define internal i64 @cvtnum(ptr noundef %0) #0 {
  %2 = alloca i64, align 8
  %3 = alloca ptr, align 8
  %4 = alloca i32, align 4
  %5 = alloca i64, align 8
  %6 = alloca i32, align 4
  store ptr %0, ptr %3, align 8
  call void @llvm.lifetime.start.p0(i64 4, ptr %4) #18
  store i32 0, ptr %4, align 4, !annotation !4
  call void @llvm.lifetime.start.p0(i64 8, ptr %5) #18
  store i64 0, ptr %5, align 8, !annotation !4
  %7 = load ptr, ptr %3, align 8
  %8 = call i32 @qemu_strtosz(ptr noundef %7, ptr noundef null, ptr noundef %5)
  store i32 %8, ptr %4, align 4
  %9 = load i32, ptr %4, align 4
  %10 = icmp slt i32 %9, 0
  br i1 %10, label %11, label %14

11:                                               ; preds = %1
  %12 = load i32, ptr %4, align 4
  %13 = sext i32 %12 to i64
  store i64 %13, ptr %2, align 8
  store i32 1, ptr %6, align 4
  br label %20

14:                                               ; preds = %1
  %15 = load i64, ptr %5, align 8
  %16 = icmp ugt i64 %15, 9223372036854775807
  br i1 %16, label %17, label %18

17:                                               ; preds = %14
  store i64 -34, ptr %2, align 8
  store i32 1, ptr %6, align 4
  br label %20

18:                                               ; preds = %14
  %19 = load i64, ptr %5, align 8
  store i64 %19, ptr %2, align 8
  store i32 1, ptr %6, align 4
  br label %20

20:                                               ; preds = %18, %17, %11
  call void @llvm.lifetime.end.p0(i64 8, ptr %5) #18
  call void @llvm.lifetime.end.p0(i64 4, ptr %4) #18
  %21 = load i64, ptr %2, align 8
  ret i64 %21
}

; Function Attrs: nounwind sspstrong uwtable
define dso_local void @qemuio_command_usage(ptr noundef %0) #0 {
  %2 = alloca ptr, align 8
  store ptr %0, ptr %2, align 8
  %3 = load ptr, ptr %2, align 8
  %4 = getelementptr inbounds nuw %struct.cmdinfo, ptr %3, i32 0, i32 0
  %5 = load ptr, ptr %4, align 8
  %6 = load ptr, ptr %2, align 8
  %7 = getelementptr inbounds nuw %struct.cmdinfo, ptr %6, i32 0, i32 7
  %8 = load ptr, ptr %7, align 8
  %9 = load ptr, ptr %2, align 8
  %10 = getelementptr inbounds nuw %struct.cmdinfo, ptr %9, i32 0, i32 8
  %11 = load ptr, ptr %10, align 8
  %12 = call i32 (i32, ptr, ...) @__printf_chk(i32 noundef 1, ptr noundef @.str.2, ptr noundef %5, ptr noundef %8, ptr noundef %11)
  ret void
}

; Function Attrs: nounwind sspstrong uwtable
define internal i32 @parse_pattern(ptr noundef %0) #0 {
  %2 = alloca i32, align 4
  %3 = alloca ptr, align 8
  %4 = alloca ptr, align 8
  %5 = alloca i64, align 8
  %6 = alloca i32, align 4
  store ptr %0, ptr %3, align 8
  call void @llvm.lifetime.start.p0(i64 8, ptr %4) #18
  store ptr null, ptr %4, align 8
  call void @llvm.lifetime.start.p0(i64 8, ptr %5) #18
  store i64 0, ptr %5, align 8, !annotation !4
  %7 = load ptr, ptr %3, align 8
  %8 = call i64 @strtol(ptr noundef %7, ptr noundef %4, i32 noundef 0) #18
  store i64 %8, ptr %5, align 8
  %9 = load i64, ptr %5, align 8
  %10 = icmp slt i64 %9, 0
  br i1 %10, label %19, label %11

11:                                               ; preds = %1
  %12 = load i64, ptr %5, align 8
  %13 = icmp sgt i64 %12, 255
  br i1 %13, label %19, label %14

14:                                               ; preds = %11
  %15 = load ptr, ptr %4, align 8
  %16 = load i8, ptr %15, align 1
  %17 = sext i8 %16 to i32
  %18 = icmp ne i32 %17, 0
  br i1 %18, label %19, label %22

19:                                               ; preds = %14, %11, %1
  %20 = load ptr, ptr %3, align 8
  %21 = call i32 (i32, ptr, ...) @__printf_chk(i32 noundef 1, ptr noundef @.str.33, ptr noundef %20)
  store i32 -1, ptr %2, align 4
  store i32 1, ptr %6, align 4
  br label %25

22:                                               ; preds = %14
  %23 = load i64, ptr %5, align 8
  %24 = trunc i64 %23 to i32
  store i32 %24, ptr %2, align 4
  store i32 1, ptr %6, align 4
  br label %25

25:                                               ; preds = %22, %19
  call void @llvm.lifetime.end.p0(i64 8, ptr %5) #18
  call void @llvm.lifetime.end.p0(i64 8, ptr %4) #18
  %26 = load i32, ptr %2, align 4
  ret i32 %26
}

; Function Attrs: nounwind sspstrong uwtable
define internal i32 @aio_read_f(ptr noundef %0, i32 noundef %1, ptr noundef %2) #0 {
  %4 = alloca i32, align 4
  %5 = alloca ptr, align 8
  %6 = alloca i32, align 4
  %7 = alloca ptr, align 8
  %8 = alloca i32, align 4
  %9 = alloca i32, align 4
  %10 = alloca ptr, align 8
  %11 = alloca i64, align 8
  %12 = alloca i64, align 8
  %13 = alloca ptr, align 8
  %14 = alloca ptr, align 8
  %15 = alloca i32, align 4
  %16 = alloca i32, align 4
  store ptr %0, ptr %5, align 8
  store i32 %1, ptr %6, align 4
  store ptr %2, ptr %7, align 8
  call void @llvm.lifetime.start.p0(i64 4, ptr %8) #18
  store i32 0, ptr %8, align 4, !annotation !4
  call void @llvm.lifetime.start.p0(i64 4, ptr %9) #18
  store i32 0, ptr %9, align 4, !annotation !4
  call void @llvm.lifetime.start.p0(i64 8, ptr %10) #18
  call void @llvm.lifetime.start.p0(i64 8, ptr %11) #18
  store i64 1, ptr %11, align 8
  call void @llvm.lifetime.start.p0(i64 8, ptr %12) #18
  store i64 120, ptr %12, align 8
  call void @llvm.lifetime.start.p0(i64 8, ptr %13) #18
  store ptr null, ptr %13, align 8, !annotation !4
  %17 = load i64, ptr %12, align 8
  %18 = icmp eq i64 %17, 1
  br i1 %18, label %19, label %22

19:                                               ; preds = %3
  %20 = load i64, ptr %11, align 8
  %21 = call noalias ptr @g_malloc0(i64 noundef %20) #20
  store ptr %21, ptr %13, align 8
  br label %43

22:                                               ; preds = %3
  %23 = load i64, ptr %11, align 8
  %24 = call i1 @llvm.is.constant.i64(i64 %23)
  br i1 %24, label %25, label %38

25:                                               ; preds = %22
  %26 = load i64, ptr %12, align 8
  %27 = icmp eq i64 %26, 0
  br i1 %27, label %33, label %28

28:                                               ; preds = %25
  %29 = load i64, ptr %11, align 8
  %30 = load i64, ptr %12, align 8
  %31 = udiv i64 -1, %30
  %32 = icmp ule i64 %29, %31
  br i1 %32, label %33, label %38

33:                                               ; preds = %28, %25
  %34 = load i64, ptr %11, align 8
  %35 = load i64, ptr %12, align 8
  %36 = mul i64 %34, %35
  %37 = call noalias ptr @g_malloc0(i64 noundef %36) #20
  store ptr %37, ptr %13, align 8
  br label %42

38:                                               ; preds = %28, %22
  %39 = load i64, ptr %11, align 8
  %40 = load i64, ptr %12, align 8
  %41 = call noalias ptr @g_malloc0_n(i64 noundef %39, i64 noundef %40) #21
  store ptr %41, ptr %13, align 8
  br label %42

42:                                               ; preds = %38, %33
  br label %43

43:                                               ; preds = %42, %19
  %44 = load ptr, ptr %13, align 8
  store ptr %44, ptr %14, align 8
  call void @llvm.lifetime.end.p0(i64 8, ptr %13) #18
  call void @llvm.lifetime.end.p0(i64 8, ptr %12) #18
  call void @llvm.lifetime.end.p0(i64 8, ptr %11) #18
  %45 = load ptr, ptr %14, align 8
  store ptr %45, ptr %10, align 8
  %46 = load ptr, ptr %5, align 8
  %47 = load ptr, ptr %10, align 8
  %48 = getelementptr inbounds nuw %struct.aio_ctx, ptr %47, i32 0, i32 0
  store ptr %46, ptr %48, align 8
  br label %49

49:                                               ; preds = %91, %43
  %50 = load i32, ptr %6, align 4
  %51 = load ptr, ptr %7, align 8
  %52 = call i32 @getopt(i32 noundef %50, ptr noundef %51, ptr noundef @.str.88) #18
  store i32 %52, ptr %9, align 4
  %53 = icmp ne i32 %52, -1
  br i1 %53, label %54, label %92

54:                                               ; preds = %49
  %55 = load i32, ptr %9, align 4
  switch i32 %55, label %89 [
    i32 67, label %56
    i32 80, label %59
    i32 105, label %73
    i32 113, label %78
    i32 114, label %81
    i32 118, label %86
  ]

56:                                               ; preds = %54
  %57 = load ptr, ptr %10, align 8
  %58 = getelementptr inbounds nuw %struct.aio_ctx, ptr %57, i32 0, i32 6
  store i8 1, ptr %58, align 2
  br label %91

59:                                               ; preds = %54
  %60 = load ptr, ptr %10, align 8
  %61 = getelementptr inbounds nuw %struct.aio_ctx, ptr %60, i32 0, i32 7
  store i8 1, ptr %61, align 1
  %62 = load ptr, ptr @optarg, align 8
  %63 = call i32 @parse_pattern(ptr noundef %62)
  %64 = load ptr, ptr %10, align 8
  %65 = getelementptr inbounds nuw %struct.aio_ctx, ptr %64, i32 0, i32 10
  store i32 %63, ptr %65, align 8
  %66 = load ptr, ptr %10, align 8
  %67 = getelementptr inbounds nuw %struct.aio_ctx, ptr %66, i32 0, i32 10
  %68 = load i32, ptr %67, align 8
  %69 = icmp slt i32 %68, 0
  br i1 %69, label %70, label %72

70:                                               ; preds = %59
  %71 = load ptr, ptr %10, align 8
  call void @g_free(ptr noundef %71)
  store i32 -22, ptr %4, align 4
  store i32 1, ptr %15, align 4
  br label %180

72:                                               ; preds = %59
  br label %91

73:                                               ; preds = %54
  %74 = call i32 (i32, ptr, ...) @__printf_chk(i32 noundef 1, ptr noundef @.str.89)
  %75 = load ptr, ptr %5, align 8
  %76 = call ptr @blk_get_stats(ptr noundef %75)
  call void @block_acct_invalid(ptr noundef %76, i32 noundef 1)
  %77 = load ptr, ptr %10, align 8
  call void @g_free(ptr noundef %77)
  store i32 0, ptr %4, align 4
  store i32 1, ptr %15, align 4
  br label %180

78:                                               ; preds = %54
  %79 = load ptr, ptr %10, align 8
  %80 = getelementptr inbounds nuw %struct.aio_ctx, ptr %79, i32 0, i32 4
  store i8 1, ptr %80, align 8
  br label %91

81:                                               ; preds = %54
  %82 = load ptr, ptr %10, align 8
  %83 = getelementptr inbounds nuw %struct.aio_ctx, ptr %82, i32 0, i32 11
  %84 = load i32, ptr %83, align 4
  %85 = or i32 %84, 8
  store i32 %85, ptr %83, align 4
  br label %91

86:                                               ; preds = %54
  %87 = load ptr, ptr %10, align 8
  %88 = getelementptr inbounds nuw %struct.aio_ctx, ptr %87, i32 0, i32 5
  store i8 1, ptr %88, align 1
  br label %91

89:                                               ; preds = %54
  %90 = load ptr, ptr %10, align 8
  call void @g_free(ptr noundef %90)
  call void @qemuio_command_usage(ptr noundef @aio_read_cmd)
  store i32 -22, ptr %4, align 4
  store i32 1, ptr %15, align 4
  br label %180

91:                                               ; preds = %86, %81, %78, %72, %56
  br label %49, !llvm.loop !24

92:                                               ; preds = %49
  %93 = load i32, ptr @optind, align 4
  %94 = load i32, ptr %6, align 4
  %95 = sub i32 %94, 2
  %96 = icmp sgt i32 %93, %95
  br i1 %96, label %97, label %99

97:                                               ; preds = %92
  %98 = load ptr, ptr %10, align 8
  call void @g_free(ptr noundef %98)
  call void @qemuio_command_usage(ptr noundef @aio_read_cmd)
  store i32 -22, ptr %4, align 4
  store i32 1, ptr %15, align 4
  br label %180

99:                                               ; preds = %92
  %100 = load ptr, ptr %7, align 8
  %101 = load i32, ptr @optind, align 4
  %102 = sext i32 %101 to i64
  %103 = getelementptr inbounds ptr, ptr %100, i64 %102
  %104 = load ptr, ptr %103, align 8
  %105 = call i64 @cvtnum(ptr noundef %104)
  %106 = load ptr, ptr %10, align 8
  %107 = getelementptr inbounds nuw %struct.aio_ctx, ptr %106, i32 0, i32 2
  store i64 %105, ptr %107, align 8
  %108 = load ptr, ptr %10, align 8
  %109 = getelementptr inbounds nuw %struct.aio_ctx, ptr %108, i32 0, i32 2
  %110 = load i64, ptr %109, align 8
  %111 = icmp slt i64 %110, 0
  br i1 %111, label %112, label %126

112:                                              ; preds = %99
  call void @llvm.lifetime.start.p0(i64 4, ptr %16) #18
  %113 = load ptr, ptr %10, align 8
  %114 = getelementptr inbounds nuw %struct.aio_ctx, ptr %113, i32 0, i32 2
  %115 = load i64, ptr %114, align 8
  %116 = trunc i64 %115 to i32
  store i32 %116, ptr %16, align 4
  %117 = load i32, ptr %16, align 4
  %118 = sext i32 %117 to i64
  %119 = load ptr, ptr %7, align 8
  %120 = load i32, ptr @optind, align 4
  %121 = sext i32 %120 to i64
  %122 = getelementptr inbounds ptr, ptr %119, i64 %121
  %123 = load ptr, ptr %122, align 8
  call void @print_cvtnum_err(i64 noundef %118, ptr noundef %123)
  %124 = load ptr, ptr %10, align 8
  call void @g_free(ptr noundef %124)
  %125 = load i32, ptr %16, align 4
  store i32 %125, ptr %4, align 4
  store i32 1, ptr %15, align 4
  call void @llvm.lifetime.end.p0(i64 4, ptr %16) #18
  br label %180

126:                                              ; preds = %99
  %127 = load i32, ptr @optind, align 4
  %128 = add i32 %127, 1
  store i32 %128, ptr @optind, align 4
  %129 = load i32, ptr %6, align 4
  %130 = load i32, ptr @optind, align 4
  %131 = sub i32 %129, %130
  store i32 %131, ptr %8, align 4
  %132 = load ptr, ptr %5, align 8
  %133 = load ptr, ptr %10, align 8
  %134 = getelementptr inbounds nuw %struct.aio_ctx, ptr %133, i32 0, i32 1
  %135 = load ptr, ptr %7, align 8
  %136 = load i32, ptr @optind, align 4
  %137 = sext i32 %136 to i64
  %138 = getelementptr inbounds ptr, ptr %135, i64 %137
  %139 = load i32, ptr %8, align 4
  %140 = load ptr, ptr %10, align 8
  %141 = getelementptr inbounds nuw %struct.aio_ctx, ptr %140, i32 0, i32 11
  %142 = load i32, ptr %141, align 4
  %143 = and i32 %142, 8
  %144 = icmp ne i32 %143, 0
  %145 = call ptr @create_iovec(ptr noundef %132, ptr noundef %134, ptr noundef %138, i32 noundef %139, i32 noundef 171, i1 noundef zeroext %144)
  %146 = load ptr, ptr %10, align 8
  %147 = getelementptr inbounds nuw %struct.aio_ctx, ptr %146, i32 0, i32 3
  store ptr %145, ptr %147, align 8
  %148 = load ptr, ptr %10, align 8
  %149 = getelementptr inbounds nuw %struct.aio_ctx, ptr %148, i32 0, i32 3
  %150 = load ptr, ptr %149, align 8
  %151 = icmp eq ptr %150, null
  br i1 %151, label %152, label %156

152:                                              ; preds = %126
  %153 = load ptr, ptr %5, align 8
  %154 = call ptr @blk_get_stats(ptr noundef %153)
  call void @block_acct_invalid(ptr noundef %154, i32 noundef 1)
  %155 = load ptr, ptr %10, align 8
  call void @g_free(ptr noundef %155)
  store i32 -22, ptr %4, align 4
  store i32 1, ptr %15, align 4
  br label %180

156:                                              ; preds = %126
  %157 = load ptr, ptr %10, align 8
  %158 = getelementptr inbounds nuw %struct.aio_ctx, ptr %157, i32 0, i32 12
  %159 = call i32 @clock_gettime(i32 noundef 1, ptr noundef %158) #18
  %160 = load ptr, ptr %5, align 8
  %161 = call ptr @blk_get_stats(ptr noundef %160)
  %162 = load ptr, ptr %10, align 8
  %163 = getelementptr inbounds nuw %struct.aio_ctx, ptr %162, i32 0, i32 9
  %164 = load ptr, ptr %10, align 8
  %165 = getelementptr inbounds nuw %struct.aio_ctx, ptr %164, i32 0, i32 1
  %166 = getelementptr inbounds nuw %struct.QEMUIOVector, ptr %165, i32 0, i32 2
  %167 = getelementptr inbounds nuw %struct.anon.0, ptr %166, i32 0, i32 1
  %168 = load i64, ptr %167, align 8
  call void @block_acct_start(ptr noundef %161, ptr noundef %163, i64 noundef %168, i32 noundef 1)
  %169 = load ptr, ptr %5, align 8
  %170 = load ptr, ptr %10, align 8
  %171 = getelementptr inbounds nuw %struct.aio_ctx, ptr %170, i32 0, i32 2
  %172 = load i64, ptr %171, align 8
  %173 = load ptr, ptr %10, align 8
  %174 = getelementptr inbounds nuw %struct.aio_ctx, ptr %173, i32 0, i32 1
  %175 = load ptr, ptr %10, align 8
  %176 = getelementptr inbounds nuw %struct.aio_ctx, ptr %175, i32 0, i32 11
  %177 = load i32, ptr %176, align 4
  %178 = load ptr, ptr %10, align 8
  %179 = call ptr @blk_aio_preadv(ptr noundef %169, i64 noundef %172, ptr noundef %174, i32 noundef %177, ptr noundef @aio_read_done, ptr noundef %178)
  store i32 0, ptr %4, align 4
  store i32 1, ptr %15, align 4
  br label %180

180:                                              ; preds = %156, %152, %112, %97, %89, %73, %70
  call void @llvm.lifetime.end.p0(i64 8, ptr %10) #18
  call void @llvm.lifetime.end.p0(i64 4, ptr %9) #18
  call void @llvm.lifetime.end.p0(i64 4, ptr %8) #18
  %181 = load i32, ptr %4, align 4
  ret i32 %181
}