; Function Attrs: nounwind sspstrong uwtable
define internal range(i32 -2147483648, 1) i32 @aio_read_f(ptr noundef %0, i32 noundef %1, ptr noundef %2) #0 {
  %4 = alloca i64, align 8
  %5 = alloca ptr, align 8
  %6 = tail call noalias dereferenceable_or_null(120) ptr @g_malloc0(i64 noundef 120) #28
  store ptr %0, ptr %6, align 8
  %7 = getelementptr inbounds nuw i8, ptr %6, i64 65
  %8 = getelementptr inbounds nuw i8, ptr %6, i64 100
  %9 = getelementptr inbounds nuw i8, ptr %6, i64 64
  %10 = getelementptr inbounds nuw i8, ptr %6, i64 67
  %11 = getelementptr inbounds nuw i8, ptr %6, i64 96
  %12 = getelementptr inbounds nuw i8, ptr %6, i64 66
  br label %13

13:                                               ; preds = %.backedge, %3
  %14 = tail call i32 @getopt(i32 noundef %1, ptr noundef %2, ptr noundef nonnull @.str.88) #26
  switch i32 %14, label %32 [
    i32 -1, label %34
    i32 67, label %15
    i32 80, label %16
    i32 105, label %24
    i32 113, label %27
    i32 114, label %28
    i32 118, label %31
  ]

15:                                               ; preds = %13
  store i8 1, ptr %12, align 2
  br label %.backedge

16:                                               ; preds = %13
  store i8 1, ptr %10, align 1
  %17 = load ptr, ptr @optarg, align 8
  call void @llvm.lifetime.start.p0(i64 8, ptr nonnull %5) #26
  store ptr null, ptr %5, align 8
  %18 = call i64 @strtol(ptr noundef %17, ptr noundef nonnull %5, i32 noundef 0) #26
  %or.cond.i = icmp ugt i64 %18, 255
  br i1 %or.cond.i, label %parse_pattern.exit.thread, label %19

19:                                               ; preds = %16
  %20 = load ptr, ptr %5, align 8
  %21 = load i8, ptr %20, align 1
  %.not.i = icmp eq i8 %21, 0
  br i1 %.not.i, label %parse_pattern.exit, label %parse_pattern.exit.thread

parse_pattern.exit.thread:                        ; preds = %16, %19
  %22 = tail call i32 (i32, ptr, ...) @__printf_chk(i32 noundef 1, ptr noundef nonnull @.str.33, ptr noundef %17) #26
  call void @llvm.lifetime.end.p0(i64 8, ptr nonnull %5) #26
  store i32 -1, ptr %11, align 8
  tail call void @g_free(ptr noundef nonnull %6) #26
  br label %83

parse_pattern.exit:                               ; preds = %19
  %23 = trunc nuw nsw i64 %18 to i32
  call void @llvm.lifetime.end.p0(i64 8, ptr nonnull %5) #26
  store i32 %23, ptr %11, align 8
  br label %.backedge

.backedge:                                        ; preds = %parse_pattern.exit, %31, %28, %27, %15
  br label %13, !llvm.loop !24

24:                                               ; preds = %13
  %25 = tail call i32 (i32, ptr, ...) @__printf_chk(i32 noundef 1, ptr noundef nonnull @.str.89) #26
  %26 = tail call ptr @blk_get_stats(ptr noundef %0) #26
  tail call void @block_acct_invalid(ptr noundef %26, i32 noundef 1) #26
  tail call void @g_free(ptr noundef nonnull %6) #26
  br label %83

27:                                               ; preds = %13
  store i8 1, ptr %9, align 8
  br label %.backedge

28:                                               ; preds = %13
  %29 = load i32, ptr %8, align 4
  %30 = or i32 %29, 8
  store i32 %30, ptr %8, align 4
  br label %.backedge

31:                                               ; preds = %13
  store i8 1, ptr %7, align 1
  br label %.backedge

32:                                               ; preds = %13
  tail call void @g_free(ptr noundef nonnull %6) #26
  %33 = tail call i32 (i32, ptr, ...) @__printf_chk(i32 noundef 1, ptr noundef nonnull @.str.2, ptr noundef nonnull @.str.85, ptr noundef nonnull @.str.86, ptr noundef nonnull @.str.87) #26
  br label %83

34:                                               ; preds = %13
  %35 = load i32, ptr @optind, align 4
  %36 = add i32 %1, -2
  %37 = icmp sgt i32 %35, %36
  br i1 %37, label %38, label %40

38:                                               ; preds = %34
  tail call void @g_free(ptr noundef nonnull %6) #26
  %39 = tail call i32 (i32, ptr, ...) @__printf_chk(i32 noundef 1, ptr noundef nonnull @.str.2, ptr noundef nonnull @.str.85, ptr noundef nonnull @.str.86, ptr noundef nonnull @.str.87) #26
  br label %83

40:                                               ; preds = %34
  %41 = sext i32 %35 to i64
  %42 = getelementptr inbounds ptr, ptr %2, i64 %41
  %43 = load ptr, ptr %42, align 8
  call void @llvm.lifetime.start.p0(i64 8, ptr nonnull %4) #26
  store i64 0, ptr %4, align 8, !annotation !8
  %44 = call i32 @qemu_strtosz(ptr noundef %43, ptr noundef null, ptr noundef nonnull %4) #26
  %45 = icmp slt i32 %44, 0
  %46 = sext i32 %44 to i64
  %47 = load i64, ptr %4, align 8
  %48 = icmp slt i64 %47, 0
  %..i = select i1 %48, i64 -34, i64 %47
  %.0.i61 = select i1 %45, i64 %46, i64 %..i
  call void @llvm.lifetime.end.p0(i64 8, ptr nonnull %4) #26
  %49 = getelementptr inbounds nuw i8, ptr %6, i64 48
  store i64 %.0.i61, ptr %49, align 8
  %50 = icmp slt i64 %.0.i61, 0
  br i1 %50, label %51, label %58

51:                                               ; preds = %40
  %52 = trunc nsw i64 %.0.i61 to i32
  %sext = shl i64 %.0.i61, 32
  %53 = load i32, ptr @optind, align 4
  %54 = sext i32 %53 to i64
  %55 = getelementptr inbounds ptr, ptr %2, i64 %54
  %56 = load ptr, ptr %55, align 8
  %switch.selectcmp.i = icmp eq i64 %sext, -146028888064
  %switch.select.i = select i1 %switch.selectcmp.i, ptr @.str.31, ptr @.str.32
  %switch.selectcmp3.i = icmp eq i64 %sext, -94489280512
  %switch.select4.i = select i1 %switch.selectcmp3.i, ptr @.str.30, ptr %switch.select.i
  %57 = call i32 (i32, ptr, ...) @__printf_chk(i32 noundef 1, ptr noundef nonnull %switch.select4.i, ptr noundef %56) #26
  call void @g_free(ptr noundef nonnull %6) #26
  br label %83

58:                                               ; preds = %40
  %59 = load i32, ptr @optind, align 4
  %60 = add i32 %59, 1
  store i32 %60, ptr @optind, align 4
  %61 = sub i32 %1, %60
  %62 = getelementptr inbounds nuw i8, ptr %6, i64 8
  %63 = sext i32 %60 to i64
  %64 = getelementptr inbounds ptr, ptr %2, i64 %63
  %65 = load i32, ptr %8, align 4
  %66 = and i32 %65, 8
  %67 = icmp ne i32 %66, 0
  %68 = call fastcc ptr @create_iovec(ptr noundef %0, ptr noundef nonnull %62, ptr noundef %64, i32 noundef %61, i32 noundef 171, i1 noundef zeroext %67)
  %69 = getelementptr inbounds nuw i8, ptr %6, i64 56
  store ptr %68, ptr %69, align 8
  %70 = icmp eq ptr %68, null
  br i1 %70, label %71, label %73

71:                                               ; preds = %58
  %72 = call ptr @blk_get_stats(ptr noundef %0) #26
  call void @block_acct_invalid(ptr noundef %72, i32 noundef 1) #26
  call void @g_free(ptr noundef nonnull %6) #26
  br label %83

73:                                               ; preds = %58
  %74 = getelementptr inbounds nuw i8, ptr %6, i64 104
  %75 = call i32 @clock_gettime(i32 noundef 1, ptr noundef nonnull %74) #26
  %76 = call ptr @blk_get_stats(ptr noundef %0) #26
  %77 = getelementptr inbounds nuw i8, ptr %6, i64 72
  %78 = getelementptr inbounds nuw i8, ptr %6, i64 40
  %79 = load i64, ptr %78, align 8
  call void @block_acct_start(ptr noundef %76, ptr noundef nonnull %77, i64 noundef %79, i32 noundef 1) #26
  %80 = load i64, ptr %49, align 8
  %81 = load i32, ptr %8, align 4
  %82 = call ptr @blk_aio_preadv(ptr noundef %0, i64 noundef %80, ptr noundef nonnull %62, i32 noundef %81, ptr noundef nonnull @aio_read_done, ptr noundef nonnull %6) #26
  br label %83

83:                                               ; preds = %73, %71, %51, %38, %32, %24, %parse_pattern.exit.thread
  %.0 = phi i32 [ -22, %32 ], [ 0, %24 ], [ -22, %parse_pattern.exit.thread ], [ -22, %38 ], [ %52, %51 ], [ -22, %71 ], [ 0, %73 ]
  ret i32 %.0
}